; ModuleID = '48/1173.cpp'
source_filename = "48/1173.cpp"
target datalayout = "e-m:e-p270:32:32-p271:32:32-p272:64:64-i64:64-f80:128-n8:16:32:64-S128"
target triple = "x86_64-pc-linux-gnu"

%"class.std::ios_base::Init" = type { i8 }
%"class.std::basic_istream" = type { i32 (...)**, i64, %"class.std::basic_ios" }
%"class.std::basic_ios" = type { %"class.std::ios_base", %"class.std::basic_ostream"*, i8, i8, %"class.std::basic_streambuf"*, %"class.std::ctype"*, %"class.std::num_put"*, %"class.std::num_get"* }
%"class.std::ios_base" = type { i32 (...)**, i64, i64, i32, i32, i32, %"struct.std::ios_base::_Callback_list"*, %"struct.std::ios_base::_Words", [8 x %"struct.std::ios_base::_Words"], i32, %"struct.std::ios_base::_Words"*, %"class.std::locale" }
%"struct.std::ios_base::_Callback_list" = type { %"struct.std::ios_base::_Callback_list"*, void (i32, %"class.std::ios_base"*, i32)*, i32, i32 }
%"struct.std::ios_base::_Words" = type { i8*, i64 }
%"class.std::locale" = type { %"class.std::locale::_Impl"* }
%"class.std::locale::_Impl" = type { i32, %"class.std::locale::facet"**, i64, %"class.std::locale::facet"**, i8** }
%"class.std::locale::facet" = type <{ i32 (...)**, i32, [4 x i8] }>
%"class.std::basic_ostream" = type { i32 (...)**, %"class.std::basic_ios" }
%"class.std::basic_streambuf" = type { i32 (...)**, i8*, i8*, i8*, i8*, i8*, i8*, %"class.std::locale" }
%"class.std::ctype" = type <{ %"class.std::locale::facet.base", [4 x i8], %struct.__locale_struct*, i8, [7 x i8], i32*, i32*, i16*, i8, [256 x i8], [256 x i8], i8, [6 x i8] }>
%"class.std::locale::facet.base" = type <{ i32 (...)**, i32 }>
%struct.__locale_struct = type { [13 x %struct.__locale_data*], i16*, i32*, i32*, [13 x i8*] }
%struct.__locale_data = type opaque
%"class.std::num_put" = type { %"class.std::locale::facet.base", [4 x i8] }
%"class.std::num_get" = type { %"class.std::locale::facet.base", [4 x i8] }

@_ZStL8__ioinit = internal global %"class.std::ios_base::Init" zeroinitializer, align 1
@__dso_handle = external hidden global i8
@m = dso_local global i32 0, align 4
@_ZSt3cin = external dso_local global %"class.std::basic_istream", align 8
@_ZSt4cout = external dso_local global %"class.std::basic_ostream", align 8
@.str = private unnamed_addr constant [2 x i8] c" \00", align 1
@llvm.global_ctors = appending global [1 x { i32, void ()*, i8* }] [{ i32, void ()*, i8* } { i32 65535, void ()* @_GLOBAL__sub_I_1173.cpp, i8* null }]

; Function Attrs: noinline uwtable
define internal void @__cxx_global_var_init() #0 section ".text.startup" {
  call void @_ZNSt8ios_base4InitC1Ev(%"class.std::ios_base::Init"* @_ZStL8__ioinit)
  %1 = call i32 @__cxa_atexit(void (i8*)* bitcast (void (%"class.std::ios_base::Init"*)* @_ZNSt8ios_base4InitD1Ev to void (i8*)*), i8* getelementptr inbounds (%"class.std::ios_base::Init", %"class.std::ios_base::Init"* @_ZStL8__ioinit, i32 0, i32 0), i8* @__dso_handle) #3
  ret void
}

declare dso_local void @_ZNSt8ios_base4InitC1Ev(%"class.std::ios_base::Init"*) unnamed_addr #1

; Function Attrs: nounwind
declare dso_local void @_ZNSt8ios_base4InitD1Ev(%"class.std::ios_base::Init"*) unnamed_addr #2

; Function Attrs: nounwind
declare dso_local i32 @__cxa_atexit(void (i8*)*, i8*, i8*) #3

; Function Attrs: noinline norecurse uwtable
define dso_local i32 @main() #4 {
  %1 = alloca i32, align 4
  %2 = alloca i32, align 4
  %3 = alloca i32, align 4
  %4 = alloca i32, align 4
  store i32 0, i32* %1, align 4
  %5 = call dereferenceable(280) %"class.std::basic_istream"* @_ZNSirsERi(%"class.std::basic_istream"* @_ZSt3cin, i32* dereferenceable(4) @m)
  %6 = call dereferenceable(280) %"class.std::basic_istream"* @_ZNSirsERi(%"class.std::basic_istream"* %5, i32* dereferenceable(4) %2)
  store i32 1, i32* %3, align 4
  br label %7

7:                                                ; preds = %30, %0
  %8 = load i32, i32* %3, align 4
  %9 = icmp slt i32 %8, 10
  br i1 %9, label %10, label %33

10:                                               ; preds = %7
  store i32 1, i32* %4, align 4
  br label %11

11:                                               ; preds = %21, %10
  %12 = load i32, i32* %4, align 4
  %13 = icmp slt i32 %12, 9
  br i1 %13, label %14, label %24

14:                                               ; preds = %11
  %15 = load i32, i32* %2, align 4
  %16 = load i32, i32* %3, align 4
  %17 = load i32, i32* %4, align 4
  %18 = call i32 @_Z3numiii(i32 %15, i32 %16, i32 %17)
  %19 = call dereferenceable(272) %"class.std::basic_ostream"* @_ZNSolsEi(%"class.std::basic_ostream"* @_ZSt4cout, i32 %18)
  %20 = call dereferenceable(272) %"class.std::basic_ostream"* @_ZStlsISt11char_traitsIcEERSt13basic_ostreamIcT_ES5_PKc(%"class.std::basic_ostream"* dereferenceable(272) %19, i8* getelementptr inbounds ([2 x i8], [2 x i8]* @.str, i64 0, i64 0))
  br label %21

21:                                               ; preds = %14
  %22 = load i32, i32* %4, align 4
  %23 = add nsw i32 %22, 1
  store i32 %23, i32* %4, align 4
  br label %11

24:                                               ; preds = %11
  %25 = load i32, i32* %2, align 4
  %26 = load i32, i32* %3, align 4
  %27 = call i32 @_Z3numiii(i32 %25, i32 %26, i32 9)
  %28 = call dereferenceable(272) %"class.std::basic_ostream"* @_ZNSolsEi(%"class.std::basic_ostream"* @_ZSt4cout, i32 %27)
  %29 = call dereferenceable(272) %"class.std::basic_ostream"* @_ZNSolsEPFRSoS_E(%"class.std::basic_ostream"* %28, %"class.std::basic_ostream"* (%"class.std::basic_ostream"*)* @_ZSt4endlIcSt11char_traitsIcEERSt13basic_ostreamIT_T0_ES6_)
  br label %30

30:                                               ; preds = %24
  %31 = load i32, i32* %3, align 4
  %32 = add nsw i32 %31, 1
  store i32 %32, i32* %3, align 4
  br label %7

33:                                               ; preds = %7
  ret i32 0
}

declare dso_local dereferenceable(280) %"class.std::basic_istream"* @_ZNSirsERi(%"class.std::basic_istream"*, i32* dereferenceable(4)) #1

declare dso_local dereferenceable(272) %"class.std::basic_ostream"* @_ZStlsISt11char_traitsIcEERSt13basic_ostreamIcT_ES5_PKc(%"class.std::basic_ostream"* dereferenceable(272), i8*) #1

declare dso_local dereferenceable(272) %"class.std::basic_ostream"* @_ZNSolsEi(%"class.std::basic_ostream"*, i32) #1

; Function Attrs: noinline uwtable
define dso_local i32 @_Z3numiii(i32 %0, i32 %1, i32 %2) #0 {
  %4 = alloca i32, align 4
  %5 = alloca i32, align 4
  %6 = alloca i32, align 4
  %7 = alloca i32, align 4
  store i32 %0, i32* %5, align 4
  store i32 %1, i32* %6, align 4
  store i32 %2, i32* %7, align 4
  %8 = load i32, i32* %5, align 4
  %9 = icmp eq i32 %8, 0
  br i1 %9, label %10, label %19

10:                                               ; preds = %3
  %11 = load i32, i32* %6, align 4
  %12 = icmp eq i32 %11, 5
  br i1 %12, label %13, label %18

13:                                               ; preds = %10
  %14 = load i32, i32* %7, align 4
  %15 = icmp eq i32 %14, 5
  br i1 %15, label %16, label %18

16:                                               ; preds = %13
  %17 = load i32, i32* @m, align 4
  store i32 %17, i32* %4, align 4
  br label %86

18:                                               ; preds = %13, %10
  store i32 0, i32* %4, align 4
  br label %86

19:                                               ; preds = %3
  %20 = load i32, i32* %5, align 4
  %21 = sub nsw i32 %20, 1
  %22 = load i32, i32* %6, align 4
  %23 = load i32, i32* %7, align 4
  %24 = call i32 @_Z3numiii(i32 %21, i32 %22, i32 %23)
  %25 = mul nsw i32 %24, 2
  %26 = load i32, i32* %5, align 4
  %27 = sub nsw i32 %26, 1
  %28 = load i32, i32* %6, align 4
  %29 = sub nsw i32 %28, 1
  %30 = load i32, i32* %7, align 4
  %31 = sub nsw i32 %30, 1
  %32 = call i32 @_Z3numiii(i32 %27, i32 %29, i32 %31)
  %33 = add nsw i32 %25, %32
  %34 = load i32, i32* %5, align 4
  %35 = sub nsw i32 %34, 1
  %36 = load i32, i32* %6, align 4
  %37 = sub nsw i32 %36, 1
  %38 = load i32, i32* %7, align 4
  %39 = call i32 @_Z3numiii(i32 %35, i32 %37, i32 %38)
  %40 = add nsw i32 %33, %39
  %41 = load i32, i32* %5, align 4
  %42 = sub nsw i32 %41, 1
  %43 = load i32, i32* %6, align 4
  %44 = sub nsw i32 %43, 1
  %45 = load i32, i32* %7, align 4
  %46 = add nsw i32 %45, 1
  %47 = call i32 @_Z3numiii(i32 %42, i32 %44, i32 %46)
  %48 = add nsw i32 %40, %47
  %49 = load i32, i32* %5, align 4
  %50 = sub nsw i32 %49, 1
  %51 = load i32, i32* %6, align 4
  %52 = load i32, i32* %7, align 4
  %53 = sub nsw i32 %52, 1
  %54 = call i32 @_Z3numiii(i32 %50, i32 %51, i32 %53)
  %55 = add nsw i32 %48, %54
  %56 = load i32, i32* %5, align 4
  %57 = sub nsw i32 %56, 1
  %58 = load i32, i32* %6, align 4
  %59 = load i32, i32* %7, align 4
  %60 = add nsw i32 %59, 1
  %61 = call i32 @_Z3numiii(i32 %57, i32 %58, i32 %60)
  %62 = add nsw i32 %55, %61
  %63 = load i32, i32* %5, align 4
  %64 = sub nsw i32 %63, 1
  %65 = load i32, i32* %6, align 4
  %66 = add nsw i32 %65, 1
  %67 = load i32, i32* %7, align 4
  %68 = sub nsw i32 %67, 1
  %69 = call i32 @_Z3numiii(i32 %64, i32 %66, i32 %68)
  %70 = add nsw i32 %62, %69
  %71 = load i32, i32* %5, align 4
  %72 = sub nsw i32 %71, 1
  %73 = load i32, i32* %6, align 4
  %74 = add nsw i32 %73, 1
  %75 = load i32, i32* %7, align 4
  %76 = call i32 @_Z3numiii(i32 %72, i32 %74, i32 %75)
  %77 = add nsw i32 %70, %76
  %78 = load i32, i32* %5, align 4
  %79 = sub nsw i32 %78, 1
  %80 = load i32, i32* %6, align 4
  %81 = add nsw i32 %80, 1
  %82 = load i32, i32* %7, align 4
  %83 = add nsw i32 %82, 1
  %84 = call i32 @_Z3numiii(i32 %79, i32 %81, i32 %83)
  %85 = add nsw i32 %77, %84
  store i32 %85, i32* %4, align 4
  br label %86

86:                                               ; preds = %19, %18, %16
  %87 = load i32, i32* %4, align 4
  ret i32 %87
}

declare dso_local dereferenceable(272) %"class.std::basic_ostream"* @_ZNSolsEPFRSoS_E(%"class.std::basic_ostream"*, %"class.std::basic_ostream"* (%"class.std::basic_ostream"*)*) #1

declare dso_local dereferenceable(272) %"class.std::basic_ostream"* @_ZSt4endlIcSt11char_traitsIcEERSt13basic_ostreamIT_T0_ES6_(%"class.std::basic_ostream"* dereferenceable(272)) #1

; Function Attrs: noinline uwtable
define internal void @_GLOBAL__sub_I_1173.cpp() #0 section ".text.startup" {
  call void @__cxx_global_var_init()
  ret void
}


!llvm.module.flags = !{!0}
!llvm.ident = !{!1}

!0 = !{i32 1, !"wchar_size", i32 4}
!1 = !{!"clang version 10.0.0-4ubuntu1 "}
